; ModuleID = '7/858.c'
source_filename = "7/858.c"
target datalayout = "e-m:e-p270:32:32-p271:32:32-p272:64:64-i64:64-f80:128-n8:16:32:64-S128"
target triple = "x86_64-pc-linux-gnu"

@.str = private unnamed_addr constant [7 x i8] c"%s%s%s\00", align 1
@.str.1 = private unnamed_addr constant [3 x i8] c"%s\00", align 1

; Function Attrs: noinline nounwind uwtable
define dso_local i32 @main() #0 {
  %1 = alloca i32, align 4
  %2 = alloca [256 x i8], align 16
  %3 = alloca [256 x i8], align 16
  %4 = alloca [256 x i8], align 16
  %5 = alloca [256 x i8], align 16
  %6 = alloca i32, align 4
  %7 = alloca i32, align 4
  %8 = alloca i32, align 4
  %9 = alloca i32, align 4
  %10 = alloca i32, align 4
  %11 = alloca i32, align 4
  store i32 0, i32* %1, align 4
  %12 = getelementptr inbounds [256 x i8], [256 x i8]* %2, i64 0, i64 0
  %13 = getelementptr inbounds [256 x i8], [256 x i8]* %3, i64 0, i64 0
  %14 = getelementptr inbounds [256 x i8], [256 x i8]* %4, i64 0, i64 0
  %15 = call i32 (i8*, ...) @__isoc99_scanf(i8* getelementptr inbounds ([7 x i8], [7 x i8]* @.str, i64 0, i64 0), i8* %12, i8* %13, i8* %14)
  store i32 0, i32* %10, align 4
  store i32 0, i32* %6, align 4
  br label %16

16:                                               ; preds = %62, %0
  %17 = load i32, i32* %6, align 4
  %18 = sext i32 %17 to i64
  %19 = getelementptr inbounds [256 x i8], [256 x i8]* %2, i64 0, i64 0
  %20 = call i64 @strlen(i8* %19) #3
  %21 = getelementptr inbounds [256 x i8], [256 x i8]* %3, i64 0, i64 0
  %22 = call i64 @strlen(i8* %21) #3
  %23 = sub i64 %20, %22
  %24 = add i64 %23, 1
  %25 = icmp ult i64 %18, %24
  br i1 %25, label %26, label %65

26:                                               ; preds = %16
  store i32 0, i32* %7, align 4
  br label %27

27:                                               ; preds = %43, %26
  %28 = load i32, i32* %7, align 4
  %29 = sext i32 %28 to i64
  %30 = getelementptr inbounds [256 x i8], [256 x i8]* %3, i64 0, i64 0
  %31 = call i64 @strlen(i8* %30) #3
  %32 = icmp ult i64 %29, %31
  br i1 %32, label %33, label %46

33:                                               ; preds = %27
  %34 = load i32, i32* %6, align 4
  %35 = load i32, i32* %7, align 4
  %36 = add nsw i32 %34, %35
  %37 = sext i32 %36 to i64
  %38 = getelementptr inbounds [256 x i8], [256 x i8]* %2, i64 0, i64 %37
  %39 = load i8, i8* %38, align 1
  %40 = load i32, i32* %7, align 4
  %41 = sext i32 %40 to i64
  %42 = getelementptr inbounds [256 x i8], [256 x i8]* %5, i64 0, i64 %41
  store i8 %39, i8* %42, align 1
  br label %43

43:                                               ; preds = %33
  %44 = load i32, i32* %7, align 4
  %45 = add nsw i32 %44, 1
  store i32 %45, i32* %7, align 4
  br label %27

46:                                               ; preds = %27
  %47 = load i32, i32* %7, align 4
  %48 = add nsw i32 %47, 1
  %49 = sext i32 %48 to i64
  %50 = getelementptr inbounds [256 x i8], [256 x i8]* %5, i64 0, i64 %49
  store i8 0, i8* %50, align 1
  %51 = getelementptr inbounds [256 x i8], [256 x i8]* %5, i64 0, i64 0
  %52 = getelementptr inbounds [256 x i8], [256 x i8]* %3, i64 0, i64 0
  %53 = call i32 @strcmp(i8* %51, i8* %52) #3
  %54 = icmp eq i32 %53, 0
  br i1 %54, label %55, label %56

55:                                               ; preds = %46
  br label %65

56:                                               ; preds = %46
  %57 = load i32, i32* %7, align 4
  %58 = sext i32 %57 to i64
  %59 = getelementptr inbounds [256 x i8], [256 x i8]* %5, i64 0, i64 %58
  store i8 0, i8* %59, align 1
  %60 = load i32, i32* %10, align 4
  %61 = add nsw i32 %60, 1
  store i32 %61, i32* %10, align 4
  br label %62

62:                                               ; preds = %56
  %63 = load i32, i32* %6, align 4
  %64 = add nsw i32 %63, 1
  store i32 %64, i32* %6, align 4
  br label %16

65:                                               ; preds = %55, %16
  %66 = getelementptr inbounds [256 x i8], [256 x i8]* %4, i64 0, i64 0
  %67 = call i64 @strlen(i8* %66) #3
  %68 = getelementptr inbounds [256 x i8], [256 x i8]* %3, i64 0, i64 0
  %69 = call i64 @strlen(i8* %68) #3
  %70 = icmp ugt i64 %67, %69
  br i1 %70, label %71, label %75

71:                                               ; preds = %65
  %72 = getelementptr inbounds [256 x i8], [256 x i8]* %4, i64 0, i64 0
  %73 = call i64 @strlen(i8* %72) #3
  %74 = trunc i64 %73 to i32
  store i32 %74, i32* %11, align 4
  br label %79

75:                                               ; preds = %65
  %76 = getelementptr inbounds [256 x i8], [256 x i8]* %3, i64 0, i64 0
  %77 = call i64 @strlen(i8* %76) #3
  %78 = trunc i64 %77 to i32
  store i32 %78, i32* %11, align 4
  br label %79

79:                                               ; preds = %75, %71
  %80 = load i32, i32* %10, align 4
  %81 = sext i32 %80 to i64
  %82 = getelementptr inbounds [256 x i8], [256 x i8]* %2, i64 0, i64 0
  %83 = call i64 @strlen(i8* %82) #3
  %84 = getelementptr inbounds [256 x i8], [256 x i8]* %3, i64 0, i64 0
  %85 = call i64 @strlen(i8* %84) #3
  %86 = sub i64 %83, %85
  %87 = add i64 %86, 1
  %88 = icmp ne i64 %81, %87
  br i1 %88, label %89, label %118

89:                                               ; preds = %79
  store i32 0, i32* %7, align 4
  br label %90

90:                                               ; preds = %112, %89
  %91 = load i32, i32* %7, align 4
  %92 = load i32, i32* %11, align 4
  %93 = icmp slt i32 %91, %92
  br i1 %93, label %94, label %115

94:                                               ; preds = %90
  %95 = load i32, i32* %7, align 4
  %96 = sext i32 %95 to i64
  %97 = getelementptr inbounds [256 x i8], [256 x i8]* %4, i64 0, i64 %96
  %98 = load i8, i8* %97, align 1
  %99 = sext i8 %98 to i32
  %100 = icmp eq i32 %99, 0
  br i1 %100, label %101, label %102

101:                                              ; preds = %94
  br label %115

102:                                              ; preds = %94
  %103 = load i32, i32* %7, align 4
  %104 = sext i32 %103 to i64
  %105 = getelementptr inbounds [256 x i8], [256 x i8]* %4, i64 0, i64 %104
  %106 = load i8, i8* %105, align 1
  %107 = load i32, i32* %6, align 4
  %108 = load i32, i32* %7, align 4
  %109 = add nsw i32 %107, %108
  %110 = sext i32 %109 to i64
  %111 = getelementptr inbounds [256 x i8], [256 x i8]* %2, i64 0, i64 %110
  store i8 %106, i8* %111, align 1
  br label %112

112:                                              ; preds = %102
  %113 = load i32, i32* %7, align 4
  %114 = add nsw i32 %113, 1
  store i32 %114, i32* %7, align 4
  br label %90

115:                                              ; preds = %101, %90
  %116 = getelementptr inbounds [256 x i8], [256 x i8]* %2, i64 0, i64 0
  %117 = call i32 (i8*, ...) @printf(i8* getelementptr inbounds ([3 x i8], [3 x i8]* @.str.1, i64 0, i64 0), i8* %116)
  br label %121

118:                                              ; preds = %79
  %119 = getelementptr inbounds [256 x i8], [256 x i8]* %2, i64 0, i64 0
  %120 = call i32 (i8*, ...) @printf(i8* getelementptr inbounds ([3 x i8], [3 x i8]* @.str.1, i64 0, i64 0), i8* %119)
  br label %121

121:                                              ; preds = %118, %115
  ret i32 0
}

declare dso_local i32 @__isoc99_scanf(i8*, ...) #1

; Function Attrs: nounwind readonly
declare dso_local i64 @strlen(i8*) #2

; Function Attrs: nounwind readonly
declare dso_local i32 @strcmp(i8*, i8*) #2

declare dso_local i32 @printf(i8*, ...) #1


!llvm.module.flags = !{!0}
!llvm.ident = !{!1}

!0 = !{i32 1, !"wchar_size", i32 4}
!1 = !{!"clang version 10.0.0-4ubuntu1 "}
